target datalayout = "e-m:e-p270:32:32-p271:32:32-p272:64:64-i64:64-i128:128-f80:128-n8:16:32:64-S128"
target triple = "x86_64-pc-linux-gnu"

%class.JVMFlagLimit = type { i16, i8, i8 }
%class.JVMFlag = type { ptr, ptr, i32, i32 }

@_ZN12JVMFlagLimit13_last_checkedE = hidden global i32 -1, align 4
@_ZN12JVMFlagLimit17_validating_phaseE = hidden global i8 0, align 1
@_ZN12JVMFlagLimit10flagLimitsE = hidden global ptr getelementptr (i8, ptr @_ZL14flagLimitTable, i64 8), align 8
@g_assert_poison = external global ptr, align 8
@.str = private unnamed_addr constant [49 x i8] c"src/hotspot/share/runtime/flags/jvmFlagLimit.cpp\00", align 1
@.str.4 = private unnamed_addr constant [44 x i8] c"guarantee(phase > _validating_phase) failed\00", align 1
@.str.5 = private unnamed_addr constant [34 x i8] c"Constraint check is out of order.\00", align 1
@_ZN7JVMFlag5flagsE = external global ptr, align 8

; Function Attrs: mustprogress nounwind uwtable
define linkonce_odr hidden noundef ptr @_ZN12JVMFlagLimit2atE12JVMFlagsEnum(i32 noundef %0) #1 comdat align 2 {
  %2 = alloca i32, align 4
  store i32 %0, ptr %2, align 4
  %3 = load i32, ptr %2, align 4
  call void @_ZN7JVMFlag22assert_valid_flag_enumE12JVMFlagsEnum(i32 noundef %3)
  %4 = load ptr, ptr @_ZN12JVMFlagLimit10flagLimitsE, align 8
  %5 = load i32, ptr %2, align 4
  %6 = sext i32 %5 to i64
  %7 = getelementptr inbounds ptr, ptr %4, i64 %6
  %8 = load ptr, ptr %7, align 8
  ret ptr %8
}

; Function Attrs: mustprogress nounwind uwtable
define linkonce_odr hidden void @_ZN7JVMFlag22assert_valid_flag_enumE12JVMFlagsEnum(i32 noundef %0) #1 comdat align 2 {
  %2 = alloca i32, align 4
  store i32 %0, ptr %2, align 4
  ret void
}

; Function Attrs: mustprogress nounwind uwtable
define linkonce_odr hidden noundef ptr @_ZN12JVMFlagLimit11get_kind_atE12JVMFlagsEnumi(i32 noundef %0, i32 noundef %1) #1 comdat align 2 {
  %3 = alloca ptr, align 8
  %4 = alloca i32, align 4
  %5 = alloca i32, align 4
  %6 = alloca ptr, align 8
  store i32 %0, ptr %4, align 4
  store i32 %1, ptr %5, align 4
  %7 = load i32, ptr %4, align 4
  %8 = call noundef ptr @_ZN12JVMFlagLimit2atE12JVMFlagsEnum(i32 noundef %7)
  store ptr %8, ptr %6, align 8
  %9 = load ptr, ptr %6, align 8
  %10 = icmp ne ptr %9, null
  br i1 %10, label %11, label %22

11:                                               ; preds = %2
  %12 = load ptr, ptr %6, align 8
  %13 = getelementptr inbounds %class.JVMFlagLimit, ptr %12, i32 0, i32 2
  %14 = load i8, ptr %13, align 1
  %15 = sext i8 %14 to i32
  %16 = load i32, ptr %5, align 4
  %17 = and i32 %15, %16
  %18 = icmp ne i32 %17, 0
  br i1 %18, label %19, label %22

19:                                               ; preds = %11
  %20 = load i32, ptr %4, align 4
  store i32 %20, ptr @_ZN12JVMFlagLimit13_last_checkedE, align 4
  %21 = load ptr, ptr %6, align 8
  store ptr %21, ptr %3, align 8
  br label %23

22:                                               ; preds = %11, %2
  store ptr null, ptr %3, align 8
  br label %23

23:                                               ; preds = %22, %19
  %24 = load ptr, ptr %3, align 8
  ret ptr %24
}

; Function Attrs: mustprogress nounwind uwtable
define hidden noundef ptr @_ZNK12JVMFlagLimit15constraint_funcEv(ptr noundef nonnull align 2 dereferenceable(4) %0) #1 align 2 {
  %2 = alloca ptr, align 8
  %3 = alloca i32, align 4
  store ptr %0, ptr %2, align 8
  %4 = load ptr, ptr %2, align 8
  %5 = getelementptr inbounds %class.JVMFlagLimit, ptr %4, i32 0, i32 0
  %6 = load i16, ptr %5, align 2
  %7 = sext i16 %6 to i32
  store i32 %7, ptr %3, align 4
  %8 = load i32, ptr %3, align 4
  %9 = sext i32 %8 to i64
  %10 = getelementptr inbounds [62 x ptr], ptr @_ZL19flagConstraintTable, i64 0, i64 %9
  %11 = load ptr, ptr %10, align 8
  ret ptr %11
}

; Function Attrs: mustprogress nounwind uwtable
define linkonce_odr hidden noundef ptr @_ZN7JVMFlag14flag_from_enumE12JVMFlagsEnum(i32 noundef %0) #1 comdat align 2 {
  %2 = alloca i32, align 4
  store i32 %0, ptr %2, align 4
  %3 = load i32, ptr %2, align 4
  call void @_ZN7JVMFlag22assert_valid_flag_enumE12JVMFlagsEnum(i32 noundef %3)
  %4 = load ptr, ptr @_ZN7JVMFlag5flagsE, align 8
  %5 = load i32, ptr %2, align 4
  %6 = sext i32 %5 to i64
  %7 = getelementptr inbounds %class.JVMFlag, ptr %4, i64 %6
  ret ptr %7
}

; Function Attrs: mustprogress nounwind uwtable
define linkonce_odr hidden noundef signext i8 @_ZNK12JVMFlagLimit5phaseEv(ptr noundef nonnull align 2 dereferenceable(4) %0) #1 comdat align 2 {
  %2 = alloca ptr, align 8
  store ptr %0, ptr %2, align 8
  %3 = load ptr, ptr %2, align 8
  %4 = getelementptr inbounds %class.JVMFlagLimit, ptr %3, i32 0, i32 1
  %5 = load i8, ptr %4, align 2
  ret i8 %5
}

; Function Attrs: mustprogress nounwind uwtable
define linkonce_odr hidden noundef ptr @_ZN12JVMFlagLimit17get_constraint_atE12JVMFlagsEnum(i32 noundef %0) #1 comdat align 2 {
  %2 = alloca i32, align 4
  store i32 %0, ptr %2, align 4
  %3 = load i32, ptr %2, align 4
  %4 = call noundef ptr @_ZN12JVMFlagLimit11get_kind_atE12JVMFlagsEnumi(i32 noundef %3, i32 noundef 2)
  ret ptr %4
}

; Function Attrs: mustprogress nounwind uwtable
define hidden noundef zeroext i1 @_ZN12JVMFlagLimit21check_all_constraintsE22JVMFlagConstraintPhase(i8 noundef signext %0) #1 align 2 {
  %2 = alloca i8, align 1
  %3 = alloca i8, align 1
  %4 = alloca i32, align 4
  %5 = alloca i32, align 4
  %6 = alloca ptr, align 8
  store i8 %0, ptr %2, align 1
  br label %7

7:                                                ; preds = %1
  %8 = load i8, ptr %2, align 1
  %9 = load i8, ptr @_ZN12JVMFlagLimit17_validating_phaseE, align 1
  %10 = icmp sgt i8 %8, %9
  br i1 %10, label %13, label %11

11:                                               ; preds = %7
  %12 = load ptr, ptr @g_assert_poison, align 8
  store i8 88, ptr %12, align 1
  call void (ptr, i32, ptr, ptr, ...) @_Z15report_vm_errorPKciS0_S0_z(ptr noundef @.str, i32 noundef 171, ptr noundef @.str.4, ptr noundef @.str.5) #4
  unreachable

13:                                               ; preds = %7
  br label %14

14:                                               ; preds = %13
  %15 = load i8, ptr %2, align 1
  store i8 %15, ptr @_ZN12JVMFlagLimit17_validating_phaseE, align 1
  store i8 1, ptr %3, align 1
  store i32 0, ptr %4, align 4
  br label %16

16:                                               ; preds = %39, %14
  %17 = load i32, ptr %4, align 4
  %18 = icmp slt i32 %17, 1223
  br i1 %18, label %19, label %42

19:                                               ; preds = %16
  %20 = load i32, ptr %4, align 4
  store i32 %20, ptr %5, align 4
  %21 = load i32, ptr %5, align 4
  %22 = call noundef ptr @_ZN12JVMFlagLimit17get_constraint_atE12JVMFlagsEnum(i32 noundef %21)
  store ptr %22, ptr %6, align 8
  %23 = load ptr, ptr %6, align 8
  %24 = icmp ne ptr %23, null
  br i1 %24, label %25, label %38

25:                                               ; preds = %19
  %26 = load ptr, ptr %6, align 8
  %27 = call noundef signext i8 @_ZNK12JVMFlagLimit5phaseEv(ptr noundef nonnull align 2 dereferenceable(4) %26)
  %28 = load i8, ptr %2, align 1
  %29 = icmp eq i8 %27, %28
  br i1 %29, label %30, label %38

30:                                               ; preds = %25
  %31 = load i32, ptr %5, align 4
  %32 = call noundef ptr @_ZN7JVMFlag14flag_from_enumE12JVMFlagsEnum(i32 noundef %31)
  %33 = load ptr, ptr %6, align 8
  %34 = call noundef ptr @_ZNK12JVMFlagLimit15constraint_funcEv(ptr noundef nonnull align 2 dereferenceable(4) %33)
  %35 = call noundef i32 @_ZN13JVMFlagAccess16check_constraintEPK7JVMFlagPvb(ptr noundef %32, ptr noundef %34, i1 noundef zeroext true)
  %36 = icmp ne i32 %35, 0
  br i1 %36, label %37, label %38

37:                                               ; preds = %30
  store i8 0, ptr %3, align 1
  br label %38

38:                                               ; preds = %37, %30, %25, %19
  br label %39

39:                                               ; preds = %38
  %40 = load i32, ptr %4, align 4
  %41 = add nsw i32 %40, 1
  store i32 %41, ptr %4, align 4
  br label %16, !llvm.loop !8

42:                                               ; preds = %16
  %43 = load i8, ptr %3, align 1
  %44 = trunc i8 %43 to i1
  ret i1 %44
}