; Function Attrs: mustprogress nounwind uwtable
define hidden noundef zeroext i1 @_ZN12JVMFlagLimit21check_all_constraintsE22JVMFlagConstraintPhase(i8 noundef signext %0) local_unnamed_addr #2 align 2 {
  %2 = load i8, ptr @_ZN12JVMFlagLimit17_validating_phaseE, align 1
  %3 = icmp slt i8 %2, %0
  br i1 %3, label %6, label %4

4:                                                ; preds = %1
  %5 = load ptr, ptr @g_assert_poison, align 8
  store i8 88, ptr %5, align 1
  tail call void (ptr, i32, ptr, ptr, ...) @_Z15report_vm_errorPKciS0_S0_z(ptr noundef nonnull @.str, i32 noundef 171, ptr noundef nonnull @.str.4, ptr noundef nonnull @.str.5) #6
  unreachable

6:                                                ; preds = %1
  store i8 %0, ptr @_ZN12JVMFlagLimit17_validating_phaseE, align 1
  %.pre19 = load ptr, ptr @_ZN12JVMFlagLimit10flagLimitsE, align 8
  br label %7

7:                                                ; preds = %6, %_ZN12JVMFlagLimit17get_constraint_atE12JVMFlagsEnum.exit.thread
  %8 = phi ptr [ %.pre19, %6 ], [ %28, %_ZN12JVMFlagLimit17get_constraint_atE12JVMFlagsEnum.exit.thread ]
  %indvars.iv = phi i64 [ 0, %6 ], [ %indvars.iv.next, %_ZN12JVMFlagLimit17get_constraint_atE12JVMFlagsEnum.exit.thread ]
  %.018 = phi i1 [ true, %6 ], [ %.1, %_ZN12JVMFlagLimit17get_constraint_atE12JVMFlagsEnum.exit.thread ]
  %9 = getelementptr inbounds ptr, ptr %8, i64 %indvars.iv
  %10 = load ptr, ptr %9, align 8
  %.not.i.i = icmp eq ptr %10, null
  br i1 %.not.i.i, label %_ZN12JVMFlagLimit17get_constraint_atE12JVMFlagsEnum.exit.thread, label %11

11:                                               ; preds = %7
  %12 = getelementptr inbounds i8, ptr %10, i64 3
  %13 = load i8, ptr %12, align 1
  %14 = and i8 %13, 2
  %.not7.i.i = icmp eq i8 %14, 0
  br i1 %.not7.i.i, label %_ZN12JVMFlagLimit17get_constraint_atE12JVMFlagsEnum.exit.thread, label %15

15:                                               ; preds = %11
  %16 = trunc nuw nsw i64 %indvars.iv to i32
  store i32 %16, ptr @_ZN12JVMFlagLimit13_last_checkedE, align 4
  %17 = getelementptr inbounds i8, ptr %10, i64 2
  %18 = load i8, ptr %17, align 2
  %19 = icmp eq i8 %18, %0
  br i1 %19, label %20, label %_ZN12JVMFlagLimit17get_constraint_atE12JVMFlagsEnum.exit.thread

20:                                               ; preds = %15
  %21 = load ptr, ptr @_ZN7JVMFlag5flagsE, align 8
  %22 = getelementptr inbounds %class.JVMFlag, ptr %21, i64 %indvars.iv
  %23 = load i16, ptr %10, align 2
  %24 = sext i16 %23 to i64
  %25 = getelementptr inbounds [62 x ptr], ptr @_ZL19flagConstraintTable, i64 0, i64 %24
  %26 = load ptr, ptr %25, align 8
  %27 = tail call noundef i32 @_ZN13JVMFlagAccess16check_constraintEPK7JVMFlagPvb(ptr noundef %22, ptr noundef %26, i1 noundef zeroext true) #5
  %.not14 = icmp eq i32 %27, 0
  %spec.select = select i1 %.not14, i1 %.018, i1 false
  %.pre = load ptr, ptr @_ZN12JVMFlagLimit10flagLimitsE, align 8
  br label %_ZN12JVMFlagLimit17get_constraint_atE12JVMFlagsEnum.exit.thread

_ZN12JVMFlagLimit17get_constraint_atE12JVMFlagsEnum.exit.thread: ; preds = %7, %11, %20, %15
  %28 = phi ptr [ %8, %15 ], [ %.pre, %20 ], [ %8, %11 ], [ %8, %7 ]
  %.1 = phi i1 [ %.018, %15 ], [ %spec.select, %20 ], [ %.018, %11 ], [ %.018, %7 ]
  %indvars.iv.next = add nuw nsw i64 %indvars.iv, 1
  %exitcond.not = icmp eq i64 %indvars.iv.next, 1223
  br i1 %exitcond.not, label %29, label %7, !llvm.loop !8

29:                                               ; preds = %_ZN12JVMFlagLimit17get_constraint_atE12JVMFlagsEnum.exit.thread
  ret i1 %.1
}